target datalayout = "e-m:e-p270:32:32-p271:32:32-p272:64:64-i64:64-i128:128-f80:128-n8:16:32:64-S128"
target triple = "x86_64-pc-linux-gnu"

%struct.AVFilterContext = type { ptr, ptr, ptr, ptr, ptr, i32, ptr, ptr, i32, ptr, ptr, i32, i32, ptr, ptr, ptr, ptr, i32, ptr, i32, i32 }
%struct.OscilloscopeContext = type { ptr, float, float, float, float, float, float, float, float, float, i32, i32, i32, i32, i32, i32, i32, i32, i32, i32, i32, i32, i32, i32, i32, i32, [4 x i8], %struct.FFDrawContext, %struct.FFDrawColor, %struct.FFDrawColor, %struct.FFDrawColor, %struct.FFDrawColor, %struct.FFDrawColor, %struct.FFDrawColor, %struct.FFDrawColor, %struct.FFDrawColor, %struct.FFDrawColor, [4 x ptr], i32, ptr, ptr, ptr }
%struct.FFDrawContext = type { ptr, i32, i32, [4 x i32], [4 x i8], [4 x i8], i8, i8, i32, i32, i32, [3 x [3 x double]] }
%struct.FFDrawColor = type { [4 x i8], [4 x %union.anon.2] }
%union.anon.2 = type { [4 x i32] }
%struct.AVFilterLink = type { ptr, ptr, ptr, ptr, i32, i32, i32, i32, %struct.AVRational, i32, i32, i32, %struct.AVChannelLayout, %struct.AVRational, ptr, i32, %struct.AVFilterFormatsConfig, %struct.AVFilterFormatsConfig }
%struct.AVChannelLayout = type { i32, i32, %union.anon.1, ptr }
%union.anon.1 = type { i64 }
%struct.AVRational = type { i32, i32 }
%struct.AVFilterFormatsConfig = type { ptr, ptr, ptr, ptr, ptr }

; Function Attrs: nounwind uwtable
define internal void @update_oscilloscope(ptr noundef %0) #0 {
  %2 = alloca ptr, align 8
  %3 = alloca ptr, align 8
  %4 = alloca ptr, align 8
  %5 = alloca i32, align 4
  %6 = alloca i32, align 4
  %7 = alloca i32, align 4
  %8 = alloca double, align 8
  %9 = alloca [4 x i8], align 1
  store ptr %0, ptr %2, align 8, !tbaa !4
  call void @llvm.lifetime.start.p0(i64 8, ptr %3) #11
  %10 = load ptr, ptr %2, align 8, !tbaa !4
  %11 = getelementptr inbounds nuw %struct.AVFilterContext, ptr %10, i32 0, i32 9
  %12 = load ptr, ptr %11, align 8, !tbaa !28
  store ptr %12, ptr %3, align 8, !tbaa !29
  call void @llvm.lifetime.start.p0(i64 8, ptr %4) #11
  %13 = load ptr, ptr %2, align 8, !tbaa !4
  %14 = getelementptr inbounds nuw %struct.AVFilterContext, ptr %13, i32 0, i32 4
  %15 = load ptr, ptr %14, align 8, !tbaa !16
  %16 = getelementptr inbounds ptr, ptr %15, i64 0
  %17 = load ptr, ptr %16, align 8, !tbaa !26
  store ptr %17, ptr %4, align 8, !tbaa !26
  call void @llvm.lifetime.start.p0(i64 4, ptr %5) #11
  call void @llvm.lifetime.start.p0(i64 4, ptr %6) #11
  call void @llvm.lifetime.start.p0(i64 4, ptr %7) #11
  call void @llvm.lifetime.start.p0(i64 8, ptr %8) #11
  %18 = load ptr, ptr %3, align 8, !tbaa !29
  %19 = getelementptr inbounds nuw %struct.OscilloscopeContext, ptr %18, i32 0, i32 27
  %20 = load ptr, ptr %3, align 8, !tbaa !29
  %21 = getelementptr inbounds nuw %struct.OscilloscopeContext, ptr %20, i32 0, i32 28
  store i8 0, ptr %9, align 1, !tbaa !70
  %22 = getelementptr inbounds i8, ptr %9, i64 1
  store i8 0, ptr %22, align 1, !tbaa !70
  %23 = getelementptr inbounds i8, ptr %9, i64 2
  store i8 0, ptr %23, align 1, !tbaa !70
  %24 = getelementptr inbounds i8, ptr %9, i64 3
  %25 = load ptr, ptr %3, align 8, !tbaa !29
  %26 = getelementptr inbounds nuw %struct.OscilloscopeContext, ptr %25, i32 0, i32 9
  %27 = load float, ptr %26, align 8, !tbaa !199
  %28 = fmul nsz float %27, 2.550000e+02
  %29 = fptoui float %28 to i8
  store i8 %29, ptr %24, align 1, !tbaa !70
  %30 = getelementptr inbounds [4 x i8], ptr %9, i64 0, i64 0
  call void @ff_draw_color(ptr noundef %19, ptr noundef %21, ptr noundef %30)
  %31 = load ptr, ptr %3, align 8, !tbaa !29
  %32 = getelementptr inbounds nuw %struct.OscilloscopeContext, ptr %31, i32 0, i32 7
  %33 = load float, ptr %32, align 8, !tbaa !200
  %34 = load ptr, ptr %4, align 8, !tbaa !26
  %35 = getelementptr inbounds nuw %struct.AVFilterLink, ptr %34, i32 0, i32 7
  %36 = load i32, ptr %35, align 4, !tbaa !52
  %37 = sitofp i32 %36 to float
  %38 = fmul nsz float %33, %37
  %39 = fptosi float %38 to i32
  %40 = load ptr, ptr %3, align 8, !tbaa !29
  %41 = getelementptr inbounds nuw %struct.OscilloscopeContext, ptr %40, i32 0, i32 20
  store i32 %39, ptr %41, align 4, !tbaa !173
  %42 = load ptr, ptr %3, align 8, !tbaa !29
  %43 = getelementptr inbounds nuw %struct.OscilloscopeContext, ptr %42, i32 0, i32 8
  %44 = load float, ptr %43, align 4, !tbaa !201
  %45 = load ptr, ptr %4, align 8, !tbaa !26
  %46 = getelementptr inbounds nuw %struct.AVFilterLink, ptr %45, i32 0, i32 6
  %47 = load i32, ptr %46, align 8, !tbaa !51
  %48 = sitofp i32 %47 to float
  %49 = fmul nsz float %44, %48
  %50 = fptosi float %49 to i32
  %51 = load ptr, ptr %3, align 8, !tbaa !29
  %52 = getelementptr inbounds nuw %struct.OscilloscopeContext, ptr %51, i32 0, i32 21
  store i32 %50, ptr %52, align 8, !tbaa !172
  %53 = load ptr, ptr %4, align 8, !tbaa !26
  %54 = getelementptr inbounds nuw %struct.AVFilterLink, ptr %53, i32 0, i32 6
  %55 = load i32, ptr %54, align 8, !tbaa !51
  %56 = sitofp i32 %55 to double
  %57 = load ptr, ptr %4, align 8, !tbaa !26
  %58 = getelementptr inbounds nuw %struct.AVFilterLink, ptr %57, i32 0, i32 7
  %59 = load i32, ptr %58, align 4, !tbaa !52
  %60 = sitofp i32 %59 to double
  %61 = call nsz double @hypot(double noundef %56, double noundef %60) #13
  %62 = fptosi double %61 to i32
  store i32 %62, ptr %7, align 4, !tbaa !14
  %63 = load ptr, ptr %3, align 8, !tbaa !29
  %64 = getelementptr inbounds nuw %struct.OscilloscopeContext, ptr %63, i32 0, i32 5
  %65 = load float, ptr %64, align 8, !tbaa !202
  %66 = load i32, ptr %7, align 4, !tbaa !14
  %67 = sitofp i32 %66 to float
  %68 = fmul nsz float %67, %65
  %69 = fptosi float %68 to i32
  store i32 %69, ptr %7, align 4, !tbaa !14
  %70 = load ptr, ptr %3, align 8, !tbaa !29
  %71 = getelementptr inbounds nuw %struct.OscilloscopeContext, ptr %70, i32 0, i32 6
  %72 = load float, ptr %71, align 4, !tbaa !203
  %73 = fpext nsz float %72 to double
  %74 = fsub nsz double %73, 5.000000e-01
  %75 = fmul nsz double %74, 0x400921FB54442D18
  store double %75, ptr %8, align 8, !tbaa !137
  %76 = load ptr, ptr %3, align 8, !tbaa !29
  %77 = getelementptr inbounds nuw %struct.OscilloscopeContext, ptr %76, i32 0, i32 1
  %78 = load float, ptr %77, align 8, !tbaa !204
  %79 = load ptr, ptr %4, align 8, !tbaa !26
  %80 = getelementptr inbounds nuw %struct.AVFilterLink, ptr %79, i32 0, i32 6
  %81 = load i32, ptr %80, align 8, !tbaa !51
  %82 = sub nsw i32 %81, 1
  %83 = sitofp i32 %82 to float
  %84 = fmul nsz float %78, %83
  %85 = fptosi float %84 to i32
  store i32 %85, ptr %5, align 4, !tbaa !14
  %86 = load ptr, ptr %3, align 8, !tbaa !29
  %87 = getelementptr inbounds nuw %struct.OscilloscopeContext, ptr %86, i32 0, i32 2
  %88 = load float, ptr %87, align 4, !tbaa !205
  %89 = load ptr, ptr %4, align 8, !tbaa !26
  %90 = getelementptr inbounds nuw %struct.AVFilterLink, ptr %89, i32 0, i32 7
  %91 = load i32, ptr %90, align 4, !tbaa !52
  %92 = sub nsw i32 %91, 1
  %93 = sitofp i32 %92 to float
  %94 = fmul nsz float %88, %93
  %95 = fptosi float %94 to i32
  store i32 %95, ptr %6, align 4, !tbaa !14
  %96 = load i32, ptr %5, align 4, !tbaa !14
  %97 = sitofp i32 %96 to double
  %98 = load i32, ptr %7, align 4, !tbaa !14
  %99 = sitofp i32 %98 to double
  %100 = fdiv nsz double %99, 2.000000e+00
  %101 = load double, ptr %8, align 8, !tbaa !137
  %102 = call nsz double @llvm.cos.f64(double %101)
  %103 = fneg nsz double %100
  %104 = call nsz double @llvm.fmuladd.f64(double %103, double %102, double %97)
  %105 = fptosi double %104 to i32
  %106 = load ptr, ptr %3, align 8, !tbaa !29
  %107 = getelementptr inbounds nuw %struct.OscilloscopeContext, ptr %106, i32 0, i32 14
  store i32 %105, ptr %107, align 4, !tbaa !163
  %108 = load i32, ptr %5, align 4, !tbaa !14
  %109 = sitofp i32 %108 to double
  %110 = load i32, ptr %7, align 4, !tbaa !14
  %111 = sitofp i32 %110 to double
  %112 = fdiv nsz double %111, 2.000000e+00
  %113 = load double, ptr %8, align 8, !tbaa !137
  %114 = call nsz double @llvm.cos.f64(double %113)
  %115 = call nsz double @llvm.fmuladd.f64(double %112, double %114, double %109)
  %116 = fptosi double %115 to i32
  %117 = load ptr, ptr %3, align 8, !tbaa !29
  %118 = getelementptr inbounds nuw %struct.OscilloscopeContext, ptr %117, i32 0, i32 16
  store i32 %116, ptr %118, align 4, !tbaa !165
  %119 = load i32, ptr %6, align 4, !tbaa !14
  %120 = sitofp i32 %119 to double
  %121 = load i32, ptr %7, align 4, !tbaa !14
  %122 = sitofp i32 %121 to double
  %123 = fdiv nsz double %122, 2.000000e+00
  %124 = load double, ptr %8, align 8, !tbaa !137
  %125 = call nsz double @llvm.sin.f64(double %124)
  %126 = fneg nsz double %123
  %127 = call nsz double @llvm.fmuladd.f64(double %126, double %125, double %120)
  %128 = fptosi double %127 to i32
  %129 = load ptr, ptr %3, align 8, !tbaa !29
  %130 = getelementptr inbounds nuw %struct.OscilloscopeContext, ptr %129, i32 0, i32 15
  store i32 %128, ptr %130, align 8, !tbaa !164
  %131 = load i32, ptr %6, align 4, !tbaa !14
  %132 = sitofp i32 %131 to double
  %133 = load i32, ptr %7, align 4, !tbaa !14
  %134 = sitofp i32 %133 to double
  %135 = fdiv nsz double %134, 2.000000e+00
  %136 = load double, ptr %8, align 8, !tbaa !137
  %137 = call nsz double @llvm.sin.f64(double %136)
  %138 = call nsz double @llvm.fmuladd.f64(double %135, double %137, double %132)
  %139 = fptosi double %138 to i32
  %140 = load ptr, ptr %3, align 8, !tbaa !29
  %141 = getelementptr inbounds nuw %struct.OscilloscopeContext, ptr %140, i32 0, i32 17
  store i32 %139, ptr %141, align 8, !tbaa !166
  %142 = load ptr, ptr %4, align 8, !tbaa !26
  %143 = getelementptr inbounds nuw %struct.AVFilterLink, ptr %142, i32 0, i32 6
  %144 = load i32, ptr %143, align 8, !tbaa !51
  %145 = load ptr, ptr %3, align 8, !tbaa !29
  %146 = getelementptr inbounds nuw %struct.OscilloscopeContext, ptr %145, i32 0, i32 21
  %147 = load i32, ptr %146, align 8, !tbaa !172
  %148 = sub nsw i32 %144, %147
  %149 = sitofp i32 %148 to float
  %150 = load ptr, ptr %3, align 8, !tbaa !29
  %151 = getelementptr inbounds nuw %struct.OscilloscopeContext, ptr %150, i32 0, i32 3
  %152 = load float, ptr %151, align 8, !tbaa !206
  %153 = fmul nsz float %149, %152
  %154 = fptosi float %153 to i32
  %155 = load ptr, ptr %3, align 8, !tbaa !29
  %156 = getelementptr inbounds nuw %struct.OscilloscopeContext, ptr %155, i32 0, i32 18
  store i32 %154, ptr %156, align 4, !tbaa !170
  %157 = load ptr, ptr %4, align 8, !tbaa !26
  %158 = getelementptr inbounds nuw %struct.AVFilterLink, ptr %157, i32 0, i32 7
  %159 = load i32, ptr %158, align 4, !tbaa !52
  %160 = load ptr, ptr %3, align 8, !tbaa !29
  %161 = getelementptr inbounds nuw %struct.OscilloscopeContext, ptr %160, i32 0, i32 20
  %162 = load i32, ptr %161, align 4, !tbaa !173
  %163 = sub nsw i32 %159, %162
  %164 = sitofp i32 %163 to float
  %165 = load ptr, ptr %3, align 8, !tbaa !29
  %166 = getelementptr inbounds nuw %struct.OscilloscopeContext, ptr %165, i32 0, i32 4
  %167 = load float, ptr %166, align 4, !tbaa !207
  %168 = fmul nsz float %164, %167
  %169 = fptosi float %168 to i32
  %170 = load ptr, ptr %3, align 8, !tbaa !29
  %171 = getelementptr inbounds nuw %struct.OscilloscopeContext, ptr %170, i32 0, i32 19
  store i32 %169, ptr %171, align 8, !tbaa !171
  call void @llvm.lifetime.end.p0(i64 8, ptr %8) #11
  call void @llvm.lifetime.end.p0(i64 4, ptr %7) #11
  call void @llvm.lifetime.end.p0(i64 4, ptr %6) #11
  call void @llvm.lifetime.end.p0(i64 4, ptr %5) #11
  call void @llvm.lifetime.end.p0(i64 8, ptr %4) #11
  call void @llvm.lifetime.end.p0(i64 8, ptr %3) #11
  ret void
}