; Function Attrs: nounwind uwtable
define internal fastcc void @update_oscilloscope(ptr readonly captures(none) %.32.val.0.val, ptr %.72.val) unnamed_addr #0 {
  %1 = alloca [4 x i8], align 1
  %2 = getelementptr inbounds nuw i8, ptr %.72.val, i64 112
  %3 = getelementptr inbounds nuw i8, ptr %.72.val, i64 240
  store i8 0, ptr %1, align 1, !tbaa !51
  %4 = getelementptr inbounds nuw i8, ptr %1, i64 1
  store i8 0, ptr %4, align 1, !tbaa !51
  %5 = getelementptr inbounds nuw i8, ptr %1, i64 2
  store i8 0, ptr %5, align 1, !tbaa !51
  %6 = getelementptr inbounds nuw i8, ptr %1, i64 3
  %7 = getelementptr inbounds nuw i8, ptr %.72.val, i64 40
  %8 = load float, ptr %7, align 8, !tbaa !181
  %9 = fmul nsz float %8, 2.550000e+02
  %10 = fptoui float %9 to i8
  store i8 %10, ptr %6, align 1, !tbaa !51
  call void @ff_draw_color(ptr noundef nonnull %2, ptr noundef nonnull %3, ptr noundef nonnull %1) #15
  %11 = getelementptr inbounds nuw i8, ptr %.72.val, i64 32
  %12 = load float, ptr %11, align 8, !tbaa !182
  %13 = getelementptr inbounds nuw i8, ptr %.32.val.0.val, i64 44
  %14 = load i32, ptr %13, align 4, !tbaa !43
  %15 = sitofp i32 %14 to float
  %16 = fmul nsz float %12, %15
  %17 = fptosi float %16 to i32
  %18 = getelementptr inbounds nuw i8, ptr %.72.val, i64 84
  store i32 %17, ptr %18, align 4, !tbaa !161
  %19 = getelementptr inbounds nuw i8, ptr %.72.val, i64 36
  %20 = load float, ptr %19, align 4, !tbaa !183
  %21 = getelementptr inbounds nuw i8, ptr %.32.val.0.val, i64 40
  %22 = load i32, ptr %21, align 8, !tbaa !42
  %23 = sitofp i32 %22 to float
  %24 = fmul nsz float %20, %23
  %25 = fptosi float %24 to i32
  %26 = getelementptr inbounds nuw i8, ptr %.72.val, i64 88
  store i32 %25, ptr %26, align 8, !tbaa !160
  %27 = sitofp i32 %22 to double
  %28 = sitofp i32 %14 to double
  %29 = call nsz double @hypot(double noundef %27, double noundef %28) #17
  %30 = fptosi double %29 to i32
  %31 = getelementptr inbounds nuw i8, ptr %.72.val, i64 24
  %32 = load float, ptr %31, align 8, !tbaa !184
  %33 = sitofp i32 %30 to float
  %34 = fmul nsz float %32, %33
  %35 = fptosi float %34 to i32
  %36 = getelementptr inbounds nuw i8, ptr %.72.val, i64 28
  %37 = load float, ptr %36, align 4, !tbaa !185
  %38 = fpext nsz float %37 to double
  %39 = fadd nsz double %38, -5.000000e-01
  %40 = fmul nsz double %39, 0x400921FB54442D18
  %41 = getelementptr inbounds nuw i8, ptr %.72.val, i64 8
  %42 = load float, ptr %41, align 8, !tbaa !186
  %43 = add nsw i32 %22, -1
  %44 = sitofp i32 %43 to float
  %45 = fmul nsz float %42, %44
  %46 = fptosi float %45 to i32
  %47 = getelementptr inbounds nuw i8, ptr %.72.val, i64 12
  %48 = load float, ptr %47, align 4, !tbaa !187
  %49 = add nsw i32 %14, -1
  %50 = sitofp i32 %49 to float
  %51 = fmul nsz float %48, %50
  %52 = fptosi float %51 to i32
  %53 = sitofp i32 %46 to double
  %54 = sitofp i32 %35 to double
  %55 = fmul nsz double %54, 5.000000e-01
  %56 = call nsz double @llvm.cos.f64(double %40)
  %57 = fneg nsz double %55
  %58 = call nsz double @llvm.fmuladd.f64(double %57, double %56, double %53)
  %59 = fptosi double %58 to i32
  %60 = getelementptr inbounds nuw i8, ptr %.72.val, i64 60
  store i32 %59, ptr %60, align 4, !tbaa !143
  %61 = call nsz double @llvm.fmuladd.f64(double %55, double %56, double %53)
  %62 = fptosi double %61 to i32
  %63 = getelementptr inbounds nuw i8, ptr %.72.val, i64 68
  store i32 %62, ptr %63, align 4, !tbaa !145
  %64 = sitofp i32 %52 to double
  %65 = call nsz double @llvm.sin.f64(double %40)
  %66 = call nsz double @llvm.fmuladd.f64(double %57, double %65, double %64)
  %67 = fptosi double %66 to i32
  %68 = getelementptr inbounds nuw i8, ptr %.72.val, i64 64
  store i32 %67, ptr %68, align 8, !tbaa !144
  %69 = call nsz double @llvm.fmuladd.f64(double %55, double %65, double %64)
  %70 = fptosi double %69 to i32
  %71 = getelementptr inbounds nuw i8, ptr %.72.val, i64 72
  store i32 %70, ptr %71, align 8, !tbaa !146
  %72 = sub nsw i32 %22, %25
  %73 = sitofp i32 %72 to float
  %74 = getelementptr inbounds nuw i8, ptr %.72.val, i64 16
  %75 = load float, ptr %74, align 8, !tbaa !188
  %76 = fmul nsz float %75, %73
  %77 = fptosi float %76 to i32
  %78 = getelementptr inbounds nuw i8, ptr %.72.val, i64 76
  store i32 %77, ptr %78, align 4, !tbaa !158
  %79 = sub nsw i32 %14, %17
  %80 = sitofp i32 %79 to float
  %81 = getelementptr inbounds nuw i8, ptr %.72.val, i64 20
  %82 = load float, ptr %81, align 4, !tbaa !189
  %83 = fmul nsz float %82, %80
  %84 = fptosi float %83 to i32
  %85 = getelementptr inbounds nuw i8, ptr %.72.val, i64 80
  store i32 %84, ptr %85, align 8, !tbaa !159
  ret void
}